target datalayout = "e-m:e-p270:32:32-p271:32:32-p272:64:64-i64:64-i128:128-f80:128-n8:16:32:64-S128"
target triple = "x86_64-pc-linux-gnu"

%struct.partition_info = type { ptr, ptr, ptr, ptr, ptr, ptr, ptr, i16, i32, i64, i32, ptr, ptr, i32, i32, ptr, ptr, i32, i32, i64, i32, i16, i32, i32, ptr, ptr, ptr, ptr, i16, i16, i16, i16, ptr, i16, i16, i32, i16, i32, i32, ptr }

@exit_code = external global i32, align 4
@.str.81 = private unnamed_addr constant [29 x i8] c"PartitionName must be given.\00", align 1
@.str.83 = private unnamed_addr constant [8 x i8] c"default\00", align 1
@.str.84 = private unnamed_addr constant [35 x i8] c"PartitionName cannot be \22DEFAULT\22.\00", align 1
@.str.85 = private unnamed_addr constant [24 x i8] c"No parameters specified\00", align 1
@.str.86 = private unnamed_addr constant [29 x i8] c"Error creating the partition\00", align 1

; Function Attrs: nounwind uwtable
define dso_local i32 @scontrol_create_part(i32 noundef %0, ptr noundef %1) #0 {
  %3 = alloca i32, align 4
  %4 = alloca i32, align 4
  %5 = alloca ptr, align 8
  %6 = alloca i32, align 4
  %7 = alloca %struct.partition_info, align 8
  %8 = alloca i32, align 4
  %9 = alloca i32, align 4
  store i32 %0, ptr %4, align 4
  store ptr %1, ptr %5, align 8
  call void @llvm.lifetime.start.p0(i64 4, ptr %6) #6
  store i32 0, ptr %6, align 4
  call void @llvm.lifetime.start.p0(i64 232, ptr %7) #6
  call void @llvm.lifetime.start.p0(i64 4, ptr %8) #6
  call void @slurm_init_part_desc_msg(ptr noundef %7)
  %10 = load i32, ptr %4, align 4
  %11 = load ptr, ptr %5, align 8
  %12 = call i32 @scontrol_parse_part_options(i32 noundef %10, ptr noundef %11, ptr noundef %6, ptr noundef %7)
  store i32 %12, ptr %8, align 4
  %13 = load i32, ptr %8, align 4
  %14 = icmp ne i32 %13, 0
  br i1 %14, label %15, label %17

15:                                               ; preds = %2
  %16 = load i32, ptr %8, align 4
  store i32 %16, ptr %3, align 4
  store i32 1, ptr %9, align 4
  br label %43

17:                                               ; preds = %2
  %18 = getelementptr inbounds nuw %struct.partition_info, ptr %7, i32 0, i32 24
  %19 = load ptr, ptr %18, align 8
  %20 = icmp eq ptr %19, null
  br i1 %20, label %21, label %23

21:                                               ; preds = %17
  store i32 1, ptr @exit_code, align 4
  %22 = call i32 (ptr, ...) @error(ptr noundef @.str.81)
  store i32 0, ptr %3, align 4
  store i32 1, ptr %9, align 4
  br label %43

23:                                               ; preds = %17
  %24 = getelementptr inbounds nuw %struct.partition_info, ptr %7, i32 0, i32 24
  %25 = load ptr, ptr %24, align 8
  %26 = call i32 @xstrcasecmp(ptr noundef %25, ptr noundef @.str.83)
  %27 = icmp eq i32 %26, 0
  br i1 %27, label %28, label %30

28:                                               ; preds = %23
  store i32 1, ptr @exit_code, align 4
  %29 = call i32 (ptr, ...) @error(ptr noundef @.str.84)
  store i32 0, ptr %3, align 4
  store i32 1, ptr %9, align 4
  br label %43

30:                                               ; preds = %23
  br label %31

31:                                               ; preds = %30
  %32 = load i32, ptr %6, align 4
  %33 = icmp eq i32 %32, 0
  br i1 %33, label %34, label %36

34:                                               ; preds = %31
  store i32 1, ptr @exit_code, align 4
  %35 = call i32 (ptr, ...) @error(ptr noundef @.str.85)
  store i32 0, ptr %3, align 4
  store i32 1, ptr %9, align 4
  br label %43

36:                                               ; preds = %31
  %37 = call i32 @slurm_create_partition(ptr noundef %7)
  %38 = icmp ne i32 %37, 0
  br i1 %38, label %39, label %42

39:                                               ; preds = %36
  store i32 1, ptr @exit_code, align 4
  call void @slurm_perror(ptr noundef @.str.86)
  %40 = call ptr @__errno_location() #8
  %41 = load i32, ptr %40, align 4
  store i32 %41, ptr %3, align 4
  store i32 1, ptr %9, align 4
  br label %43

42:                                               ; preds = %36
  store i32 0, ptr %3, align 4
  store i32 1, ptr %9, align 4
  br label %43

43:                                               ; preds = %42, %39, %34, %28, %21, %15
  call void @llvm.lifetime.end.p0(i64 4, ptr %8) #6
  call void @llvm.lifetime.end.p0(i64 232, ptr %7) #6
  call void @llvm.lifetime.end.p0(i64 4, ptr %6) #6
  %44 = load i32, ptr %3, align 4
  ret i32 %44
}