; Function Attrs: nounwind uwtable
define dso_local i32 @scontrol_create_part(i32 noundef %0, ptr noundef readonly captures(none) %1) local_unnamed_addr #0 {
  %3 = alloca i32, align 4
  %4 = alloca %struct.partition_info, align 8
  call void @llvm.lifetime.start.p0(i64 4, ptr nonnull %3) #7
  store i32 0, ptr %3, align 4
  call void @llvm.lifetime.start.p0(i64 232, ptr nonnull %4) #7
  call void @slurm_init_part_desc_msg(ptr noundef nonnull %4) #7
  %5 = call i32 @scontrol_parse_part_options(i32 noundef %0, ptr noundef %1, ptr noundef nonnull %3, ptr noundef nonnull %4)
  %.not = icmp eq i32 %5, 0
  br i1 %.not, label %6, label %27

6:                                                ; preds = %2
  %7 = getelementptr inbounds nuw i8, ptr %4, i64 152
  %8 = load ptr, ptr %7, align 8
  %9 = icmp eq ptr %8, null
  br i1 %9, label %10, label %12

10:                                               ; preds = %6
  store i32 1, ptr @exit_code, align 4
  %11 = call i32 (ptr, ...) @error(ptr noundef nonnull @.str.81) #7
  br label %27

12:                                               ; preds = %6
  %13 = call i32 @xstrcasecmp(ptr noundef nonnull %8, ptr noundef nonnull @.str.83) #7
  %14 = icmp eq i32 %13, 0
  br i1 %14, label %15, label %17

15:                                               ; preds = %12
  store i32 1, ptr @exit_code, align 4
  %16 = call i32 (ptr, ...) @error(ptr noundef nonnull @.str.84) #7
  br label %27

17:                                               ; preds = %12
  %18 = load i32, ptr %3, align 4
  %19 = icmp eq i32 %18, 0
  br i1 %19, label %20, label %22

20:                                               ; preds = %17
  store i32 1, ptr @exit_code, align 4
  %21 = call i32 (ptr, ...) @error(ptr noundef nonnull @.str.85) #7
  br label %27

22:                                               ; preds = %17
  %23 = call i32 @slurm_create_partition(ptr noundef nonnull %4) #7
  %.not6 = icmp eq i32 %23, 0
  br i1 %.not6, label %27, label %24

24:                                               ; preds = %22
  store i32 1, ptr @exit_code, align 4
  call void @slurm_perror(ptr noundef nonnull @.str.86) #7
  %25 = tail call ptr @__errno_location() #9
  %26 = load i32, ptr %25, align 4
  br label %27

27:                                               ; preds = %22, %2, %24, %20, %15, %10
  %.0 = phi i32 [ 0, %10 ], [ 0, %15 ], [ 0, %20 ], [ %26, %24 ], [ -1, %2 ], [ 0, %22 ]
  call void @llvm.lifetime.end.p0(i64 232, ptr nonnull %4) #7
  call void @llvm.lifetime.end.p0(i64 4, ptr nonnull %3) #7
  ret i32 %.0
}